target datalayout = "e-m:e-p270:32:32-p271:32:32-p272:64:64-i64:64-i128:128-f80:128-n8:16:32:64-S128"
target triple = "x86_64-pc-linux-gnu"

%struct.expert_field = type { i32, i32 }

@hf_pfcp_c_tag_cvid = internal global i32 0, align 4
@hf_pfcp_c_tag_dei_flag = internal global i32 0, align 4
@hf_pfcp_c_tag_pcp_value = internal global i32 0, align 4
@hf_pfcp_s_tag_svid = internal global i32 0, align 4
@hf_pfcp_s_tag_dei_flag = internal global i32 0, align 4
@hf_pfcp_s_tag_pcp_value = internal global i32 0, align 4
@hf_pfcp_mac_addresses_detected_number_of_mac_addresses = internal global i32 0, align 4
@hf_pfcp_mac_addresses_detected_mac_address = internal global i32 0, align 4
@hf_pfcp_mac_addresses_detected_length_of_ctag = internal global i32 0, align 4
@hf_pfcp_mac_addresses_detected_length_of_stag = internal global i32 0, align 4
@ei_pfcp_ie_data_not_decoded = internal global %struct.expert_field zeroinitializer, align 4
@decode_pfcp_c_tag.pfcp_c_tag_cvid_crumbs = internal constant [3 x { i32, i8, [3 x i8] }] [{ i32, i8, [3 x i8] } { i32 0, i8 4, [3 x i8] zeroinitializer }, { i32, i8, [3 x i8] } { i32 8, i8 8, [3 x i8] zeroinitializer }, { i32, i8, [3 x i8] } zeroinitializer], align 16
@decode_pfcp_c_tag.pfcp_c_tag_flags = internal constant [5 x ptr] [ptr @hf_pfcp_spare_b7_b3, ptr @hf_pfcp_c_tag_flags_b2_vid, ptr @hf_pfcp_c_tag_flags_b1_dei, ptr @hf_pfcp_c_tag_flags_b0_pcp, ptr null], align 16
@decode_pfcp_s_tag.pfcp_s_tag_svid_crumbs = internal constant [3 x { i32, i8, [3 x i8] }] [{ i32, i8, [3 x i8] } { i32 0, i8 4, [3 x i8] zeroinitializer }, { i32, i8, [3 x i8] } { i32 8, i8 8, [3 x i8] zeroinitializer }, { i32, i8, [3 x i8] } zeroinitializer], align 16
@decode_pfcp_s_tag.pfcp_s_tag_flags = internal constant [5 x ptr] [ptr @hf_pfcp_spare_b7_b3, ptr @hf_pfcp_s_tag_flags_b2_vid, ptr @hf_pfcp_s_tag_flags_b1_dei, ptr @hf_pfcp_s_tag_flags_b0_pcp, ptr null], align 16

; Function Attrs: null_pointer_is_valid sspstrong uwtable
define internal i32 @decode_pfcp_s_tag(ptr noundef %0, ptr noundef %1, ptr noundef %2, ptr noundef %3, i32 noundef %4) #0 {
  %6 = alloca ptr, align 8
  %7 = alloca ptr, align 8
  %8 = alloca ptr, align 8
  %9 = alloca ptr, align 8
  %10 = alloca i32, align 4
  store ptr %0, ptr %6, align 8
  store ptr %1, ptr %7, align 8
  store ptr %2, ptr %8, align 8
  store ptr %3, ptr %9, align 8
  store i32 %4, ptr %10, align 4
  %11 = load ptr, ptr %8, align 8
  %12 = load ptr, ptr %6, align 8
  %13 = load i32, ptr %10, align 4
  call void @proto_tree_add_bitmask_list(ptr noundef %11, ptr noundef %12, i32 noundef %13, i32 noundef 1, ptr noundef @decode_pfcp_s_tag.pfcp_s_tag_flags, i32 noundef 0)
  %14 = load i32, ptr %10, align 4
  %15 = add i32 %14, 1
  store i32 %15, ptr %10, align 4
  %16 = load ptr, ptr %8, align 8
  %17 = load i32, ptr @hf_pfcp_s_tag_svid, align 4
  %18 = load ptr, ptr %6, align 8
  %19 = load i32, ptr %10, align 4
  %20 = shl i32 %19, 3
  %21 = call ptr @proto_tree_add_split_bits_item_ret_val(ptr noundef %16, i32 noundef %17, ptr noundef %18, i32 noundef %20, ptr noundef @decode_pfcp_s_tag.pfcp_s_tag_svid_crumbs, ptr noundef null)
  %22 = load ptr, ptr %8, align 8
  %23 = load i32, ptr @hf_pfcp_s_tag_dei_flag, align 4
  %24 = load ptr, ptr %6, align 8
  %25 = load i32, ptr %10, align 4
  %26 = call ptr @proto_tree_add_item(ptr noundef %22, i32 noundef %23, ptr noundef %24, i32 noundef %25, i32 noundef 1, i32 noundef 0)
  %27 = load ptr, ptr %8, align 8
  %28 = load i32, ptr @hf_pfcp_s_tag_pcp_value, align 4
  %29 = load ptr, ptr %6, align 8
  %30 = load i32, ptr %10, align 4
  %31 = call ptr @proto_tree_add_item(ptr noundef %27, i32 noundef %28, ptr noundef %29, i32 noundef %30, i32 noundef 1, i32 noundef 0)
  %32 = load i32, ptr %10, align 4
  %33 = add i32 %32, 2
  store i32 %33, ptr %10, align 4
  %34 = load i32, ptr %10, align 4
  ret i32 %34
}

; Function Attrs: null_pointer_is_valid sspstrong uwtable
define internal i32 @decode_pfcp_c_tag(ptr noundef %0, ptr noundef %1, ptr noundef %2, ptr noundef %3, i32 noundef %4) #0 {
  %6 = alloca ptr, align 8
  %7 = alloca ptr, align 8
  %8 = alloca ptr, align 8
  %9 = alloca ptr, align 8
  %10 = alloca i32, align 4
  store ptr %0, ptr %6, align 8
  store ptr %1, ptr %7, align 8
  store ptr %2, ptr %8, align 8
  store ptr %3, ptr %9, align 8
  store i32 %4, ptr %10, align 4
  %11 = load ptr, ptr %8, align 8
  %12 = load ptr, ptr %6, align 8
  %13 = load i32, ptr %10, align 4
  call void @proto_tree_add_bitmask_list(ptr noundef %11, ptr noundef %12, i32 noundef %13, i32 noundef 1, ptr noundef @decode_pfcp_c_tag.pfcp_c_tag_flags, i32 noundef 0)
  %14 = load i32, ptr %10, align 4
  %15 = add i32 %14, 1
  store i32 %15, ptr %10, align 4
  %16 = load ptr, ptr %8, align 8
  %17 = load i32, ptr @hf_pfcp_c_tag_cvid, align 4
  %18 = load ptr, ptr %6, align 8
  %19 = load i32, ptr %10, align 4
  %20 = shl i32 %19, 3
  %21 = call ptr @proto_tree_add_split_bits_item_ret_val(ptr noundef %16, i32 noundef %17, ptr noundef %18, i32 noundef %20, ptr noundef @decode_pfcp_c_tag.pfcp_c_tag_cvid_crumbs, ptr noundef null)
  %22 = load ptr, ptr %8, align 8
  %23 = load i32, ptr @hf_pfcp_c_tag_dei_flag, align 4
  %24 = load ptr, ptr %6, align 8
  %25 = load i32, ptr %10, align 4
  %26 = call ptr @proto_tree_add_item(ptr noundef %22, i32 noundef %23, ptr noundef %24, i32 noundef %25, i32 noundef 1, i32 noundef 0)
  %27 = load ptr, ptr %8, align 8
  %28 = load i32, ptr @hf_pfcp_c_tag_pcp_value, align 4
  %29 = load ptr, ptr %6, align 8
  %30 = load i32, ptr %10, align 4
  %31 = call ptr @proto_tree_add_item(ptr noundef %27, i32 noundef %28, ptr noundef %29, i32 noundef %30, i32 noundef 1, i32 noundef 0)
  %32 = load i32, ptr %10, align 4
  %33 = add i32 %32, 2
  store i32 %33, ptr %10, align 4
  %34 = load i32, ptr %10, align 4
  ret i32 %34
}

; Function Attrs: null_pointer_is_valid sspstrong uwtable
define internal void @dissect_pfcp_mac_addresses_detected(ptr noundef %0, ptr noundef %1, ptr noundef %2, ptr noundef %3, i16 noundef zeroext %4, i8 noundef zeroext %5, ptr noundef %6) #0 {
  %8 = alloca ptr, align 8
  %9 = alloca ptr, align 8
  %10 = alloca ptr, align 8
  %11 = alloca ptr, align 8
  %12 = alloca i16, align 2
  %13 = alloca i8, align 1
  %14 = alloca ptr, align 8
  %15 = alloca i32, align 4
  %16 = alloca i32, align 4
  %17 = alloca i32, align 4
  %18 = alloca i32, align 4
  %19 = alloca i32, align 4
  %20 = alloca i32, align 4
  store ptr %0, ptr %8, align 8
  store ptr %1, ptr %9, align 8
  store ptr %2, ptr %10, align 8
  store ptr %3, ptr %11, align 8
  store i16 %4, ptr %12, align 2
  store i8 %5, ptr %13, align 1
  store ptr %6, ptr %14, align 8
  call void @llvm.lifetime.start.p0(i64 4, ptr %15) #13
  store i32 0, ptr %15, align 4
  call void @llvm.lifetime.start.p0(i64 4, ptr %16) #13
  call void @llvm.lifetime.start.p0(i64 4, ptr %17) #13
  call void @llvm.lifetime.start.p0(i64 4, ptr %18) #13
  call void @llvm.lifetime.start.p0(i64 4, ptr %19) #13
  %21 = load ptr, ptr %10, align 8
  %22 = load i32, ptr @hf_pfcp_mac_addresses_detected_number_of_mac_addresses, align 4
  %23 = load ptr, ptr %8, align 8
  %24 = load i32, ptr %15, align 4
  %25 = call ptr @proto_tree_add_item_ret_uint(ptr noundef %21, i32 noundef %22, ptr noundef %23, i32 noundef %24, i32 noundef 1, i32 noundef 0, ptr noundef %16)
  %26 = load i32, ptr %15, align 4
  %27 = add i32 %26, 1
  store i32 %27, ptr %15, align 4
  store i32 0, ptr %17, align 4
  br label %28

28:                                               ; preds = %40, %7
  %29 = load i32, ptr %17, align 4
  %30 = load i32, ptr %16, align 4
  %31 = icmp ult i32 %29, %30
  br i1 %31, label %32, label %43

32:                                               ; preds = %28
  %33 = load ptr, ptr %10, align 8
  %34 = load i32, ptr @hf_pfcp_mac_addresses_detected_mac_address, align 4
  %35 = load ptr, ptr %8, align 8
  %36 = load i32, ptr %15, align 4
  %37 = call ptr @proto_tree_add_item(ptr noundef %33, i32 noundef %34, ptr noundef %35, i32 noundef %36, i32 noundef 6, i32 noundef 0)
  %38 = load i32, ptr %15, align 4
  %39 = add i32 %38, 6
  store i32 %39, ptr %15, align 4
  br label %40

40:                                               ; preds = %32
  %41 = load i32, ptr %17, align 4
  %42 = add i32 %41, 1
  store i32 %42, ptr %17, align 4
  br label %28, !llvm.loop !21

43:                                               ; preds = %28
  %44 = load i32, ptr %15, align 4
  %45 = load i16, ptr %12, align 2
  %46 = zext i16 %45 to i32
  %47 = icmp eq i32 %44, %46
  br i1 %47, label %48, label %49

48:                                               ; preds = %43
  store i32 1, ptr %20, align 4
  br label %95

49:                                               ; preds = %43
  %50 = load ptr, ptr %10, align 8
  %51 = load i32, ptr @hf_pfcp_mac_addresses_detected_length_of_ctag, align 4
  %52 = load ptr, ptr %8, align 8
  %53 = load i32, ptr %15, align 4
  %54 = call ptr @proto_tree_add_item_ret_uint(ptr noundef %50, i32 noundef %51, ptr noundef %52, i32 noundef %53, i32 noundef 1, i32 noundef 0, ptr noundef %18)
  %55 = load i32, ptr %15, align 4
  %56 = add i32 %55, 1
  store i32 %56, ptr %15, align 4
  %57 = load i32, ptr %18, align 4
  %58 = icmp ugt i32 %57, 0
  br i1 %58, label %59, label %66

59:                                               ; preds = %49
  %60 = load ptr, ptr %8, align 8
  %61 = load ptr, ptr %9, align 8
  %62 = load ptr, ptr %10, align 8
  %63 = load ptr, ptr %11, align 8
  %64 = load i32, ptr %15, align 4
  %65 = call i32 @decode_pfcp_c_tag(ptr noundef %60, ptr noundef %61, ptr noundef %62, ptr noundef %63, i32 noundef %64)
  store i32 %65, ptr %15, align 4
  br label %66

66:                                               ; preds = %59, %49
  %67 = load ptr, ptr %10, align 8
  %68 = load i32, ptr @hf_pfcp_mac_addresses_detected_length_of_stag, align 4
  %69 = load ptr, ptr %8, align 8
  %70 = load i32, ptr %15, align 4
  %71 = call ptr @proto_tree_add_item_ret_uint(ptr noundef %67, i32 noundef %68, ptr noundef %69, i32 noundef %70, i32 noundef 1, i32 noundef 0, ptr noundef %19)
  %72 = load i32, ptr %15, align 4
  %73 = add i32 %72, 1
  store i32 %73, ptr %15, align 4
  %74 = load i32, ptr %19, align 4
  %75 = icmp ugt i32 %74, 0
  br i1 %75, label %76, label %83

76:                                               ; preds = %66
  %77 = load ptr, ptr %8, align 8
  %78 = load ptr, ptr %9, align 8
  %79 = load ptr, ptr %10, align 8
  %80 = load ptr, ptr %11, align 8
  %81 = load i32, ptr %15, align 4
  %82 = call i32 @decode_pfcp_s_tag(ptr noundef %77, ptr noundef %78, ptr noundef %79, ptr noundef %80, i32 noundef %81)
  store i32 %82, ptr %15, align 4
  br label %83

83:                                               ; preds = %76, %66
  %84 = load i32, ptr %15, align 4
  %85 = load i16, ptr %12, align 2
  %86 = zext i16 %85 to i32
  %87 = icmp slt i32 %84, %86
  br i1 %87, label %88, label %94

88:                                               ; preds = %83
  %89 = load ptr, ptr %10, align 8
  %90 = load ptr, ptr %9, align 8
  %91 = load ptr, ptr %8, align 8
  %92 = load i32, ptr %15, align 4
  %93 = call ptr @proto_tree_add_expert(ptr noundef %89, ptr noundef %90, ptr noundef @ei_pfcp_ie_data_not_decoded, ptr noundef %91, i32 noundef %92, i32 noundef -1)
  br label %94

94:                                               ; preds = %88, %83
  store i32 0, ptr %20, align 4
  br label %95

95:                                               ; preds = %94, %48
  call void @llvm.lifetime.end.p0(i64 4, ptr %19) #13
  call void @llvm.lifetime.end.p0(i64 4, ptr %18) #13
  call void @llvm.lifetime.end.p0(i64 4, ptr %17) #13
  call void @llvm.lifetime.end.p0(i64 4, ptr %16) #13
  call void @llvm.lifetime.end.p0(i64 4, ptr %15) #13
  %96 = load i32, ptr %20, align 4
  switch i32 %96, label %98 [
    i32 0, label %97
    i32 1, label %97
  ]

97:                                               ; preds = %95, %95
  ret void

98:                                               ; preds = %95
  unreachable
}